; Function Attrs: nounwind uwtable
define void @Gia_Min2CollectSuper_rec(ptr noundef %0, ptr noundef %1, i32 noundef %2, i32 noundef %3) local_unnamed_addr #0 {
  %5 = ptrtoint ptr %0 to i64
  %6 = and i64 %5, 1
  %.not2344 = icmp eq i64 %6, 0
  br i1 %.not2344, label %.lr.ph.preheader, label %tailrecurse.outer._crit_edge

.lr.ph.preheader:                                 ; preds = %4
  %7 = icmp eq i32 %2, 0
  br label %.lr.ph

.lr.ph:                                           ; preds = %.lr.ph.preheader, %.split.split.us
  %.tr21.ph47 = phi i32 [ 0, %.split.split.us ], [ %3, %.lr.ph.preheader ]
  %.tr20.ph46 = phi i1 [ true, %.split.split.us ], [ %7, %.lr.ph.preheader ]
  %.tr.ph45 = phi ptr [ %30, %.split.split.us ], [ %0, %.lr.ph.preheader ]
  %.not16 = icmp eq i32 %.tr21.ph47, 0
  br i1 %.not16, label %.lr.ph.split.us, label %.lr.ph.split

.lr.ph.split.us:                                  ; preds = %.lr.ph
  %.val.us = load i64, ptr %.tr.ph45, align 4
  %8 = and i64 %.val.us, 2684354559
  %narrow.i.not.us = icmp eq i64 %8, 2684354559
  br i1 %narrow.i.not.us, label %tailrecurse.outer._crit_edge, label %9

9:                                                ; preds = %.lr.ph.split.us
  br i1 %.tr20.ph46, label %10, label %.split.split.us

10:                                               ; preds = %9
  %11 = getelementptr i8, ptr %.tr.ph45, i64 8
  %.val18.us = load i32, ptr %11, align 4, !tbaa !64
  %12 = icmp sgt i32 %.val18.us, 1
  br i1 %12, label %tailrecurse.outer._crit_edge, label %.split.split.us

.split.split.us:                                  ; preds = %10, %9
  %13 = and i64 %.val.us, 536870911
  %14 = sub nsw i64 0, %13
  %15 = getelementptr inbounds %struct.Gia_Obj_t_, ptr %.tr.ph45, i64 %14
  %16 = lshr i64 %.val.us, 29
  %17 = and i64 %16, 1
  %18 = ptrtoint ptr %15 to i64
  %19 = or disjoint i64 %17, %18
  %20 = inttoptr i64 %19 to ptr
  tail call void @Gia_Min2CollectSuper_rec(ptr noundef nonnull %20, ptr noundef %1, i32 noundef 0, i32 noundef 0)
  %21 = load i64, ptr %.tr.ph45, align 4
  %22 = lshr i64 %21, 32
  %23 = and i64 %22, 536870911
  %24 = sub nsw i64 0, %23
  %25 = getelementptr inbounds %struct.Gia_Obj_t_, ptr %.tr.ph45, i64 %24
  %26 = lshr i64 %21, 61
  %27 = and i64 %26, 1
  %28 = ptrtoint ptr %25 to i64
  %29 = or disjoint i64 %27, %28
  %30 = inttoptr i64 %29 to ptr
  %31 = and i64 %29, 1
  %.not23 = icmp eq i64 %31, 0
  br i1 %.not23, label %.lr.ph, label %tailrecurse.outer._crit_edge

.lr.ph.split:                                     ; preds = %.lr.ph, %.split13
  %.tr2025 = phi i1 [ true, %.split13 ], [ %.tr20.ph46, %.lr.ph ]
  %.tr24 = phi ptr [ %56, %.split13 ], [ %.tr.ph45, %.lr.ph ]
  %.val = load i64, ptr %.tr24, align 4
  %32 = and i64 %.val, 2684354559
  %narrow.i.not = icmp eq i64 %32, 2684354559
  br i1 %narrow.i.not, label %tailrecurse.outer._crit_edge, label %33

33:                                               ; preds = %.lr.ph.split
  br i1 %.tr2025, label %34, label %38

34:                                               ; preds = %33
  %35 = getelementptr i8, ptr %.tr24, i64 8
  %.val18 = load i32, ptr %35, align 4, !tbaa !64
  %36 = icmp slt i32 %.val18, 2
  %37 = and i64 %.val, 1073741824
  %.not17 = icmp eq i64 %37, 0
  %or.cond = and i1 %36, %.not17
  br i1 %or.cond, label %.split13, label %tailrecurse.outer._crit_edge

38:                                               ; preds = %33
  %.old = and i64 %.val, 1073741824
  %.not17.old = icmp eq i64 %.old, 0
  br i1 %.not17.old, label %.split13, label %tailrecurse.outer._crit_edge

.split13:                                         ; preds = %34, %38
  %39 = and i64 %.val, 536870911
  %40 = sub nsw i64 0, %39
  %41 = getelementptr inbounds %struct.Gia_Obj_t_, ptr %.tr24, i64 %40
  %42 = lshr i64 %.val, 29
  %43 = and i64 %42, 1
  %44 = ptrtoint ptr %41 to i64
  %45 = or disjoint i64 %43, %44
  %46 = inttoptr i64 %45 to ptr
  tail call void @Gia_Min2CollectSuper_rec(ptr noundef nonnull %46, ptr noundef %1, i32 noundef 0, i32 noundef %.tr21.ph47)
  %47 = load i64, ptr %.tr24, align 4
  %48 = lshr i64 %47, 32
  %49 = and i64 %48, 536870911
  %50 = sub nsw i64 0, %49
  %51 = getelementptr inbounds %struct.Gia_Obj_t_, ptr %.tr24, i64 %50
  %52 = lshr i64 %47, 61
  %53 = and i64 %52, 1
  %54 = ptrtoint ptr %51 to i64
  %55 = or disjoint i64 %53, %54
  %56 = inttoptr i64 %55 to ptr
  %57 = and i64 %55, 1
  %.not = icmp eq i64 %57, 0
  br i1 %.not, label %.lr.ph.split, label %tailrecurse.outer._crit_edge

tailrecurse.outer._crit_edge:                     ; preds = %.lr.ph.split.us, %10, %.split.split.us, %.split13, %.lr.ph.split, %34, %38, %4
  %.tr.lcssa = phi ptr [ %0, %4 ], [ %.tr24, %38 ], [ %.tr24, %34 ], [ %.tr24, %.lr.ph.split ], [ %56, %.split13 ], [ %30, %.split.split.us ], [ %.tr.ph45, %10 ], [ %.tr.ph45, %.lr.ph.split.us ]
  %58 = getelementptr inbounds nuw i8, ptr %1, i64 4
  %59 = load i32, ptr %58, align 4, !tbaa !21
  %60 = icmp sgt i32 %59, 0
  br i1 %60, label %.lr.ph.i, label %._crit_edge.i

.lr.ph.i:                                         ; preds = %tailrecurse.outer._crit_edge
  %61 = getelementptr inbounds nuw i8, ptr %1, i64 8
  %62 = load ptr, ptr %61, align 8, !tbaa !24
  %wide.trip.count.i = zext nneg i32 %59 to i64
  br label %64

63:                                               ; preds = %64
  %indvars.iv.next.i = add nuw nsw i64 %indvars.iv.i, 1
  %exitcond.not.i = icmp eq i64 %indvars.iv.next.i, %wide.trip.count.i
  br i1 %exitcond.not.i, label %._crit_edge.i, label %64, !llvm.loop !92

64:                                               ; preds = %63, %.lr.ph.i
  %indvars.iv.i = phi i64 [ 0, %.lr.ph.i ], [ %indvars.iv.next.i, %63 ]
  %65 = getelementptr inbounds nuw ptr, ptr %62, i64 %indvars.iv.i
  %66 = load ptr, ptr %65, align 8, !tbaa !44
  %67 = icmp eq ptr %66, %.tr.lcssa
  br i1 %67, label %Vec_PtrPushUnique.exit, label %63

._crit_edge.i:                                    ; preds = %63, %tailrecurse.outer._crit_edge
  %68 = load i32, ptr %1, align 8, !tbaa !23
  %69 = icmp eq i32 %59, %68
  br i1 %69, label %70, label %.Vec_PtrGrow.exit11_crit_edge.i.i

.Vec_PtrGrow.exit11_crit_edge.i.i:                ; preds = %._crit_edge.i
  %.phi.trans.insert.i.i = getelementptr inbounds nuw i8, ptr %1, i64 8
  %.pre.i.i = load ptr, ptr %.phi.trans.insert.i.i, align 8, !tbaa !24
  br label %Vec_PtrPush.exit.i

70:                                               ; preds = %._crit_edge.i
  %71 = icmp slt i32 %59, 16
  br i1 %71, label %72, label %80

72:                                               ; preds = %70
  %73 = getelementptr inbounds nuw i8, ptr %1, i64 8
  %74 = load ptr, ptr %73, align 8, !tbaa !24
  %.not9.i.i.i = icmp eq ptr %74, null
  br i1 %.not9.i.i.i, label %77, label %75

75:                                               ; preds = %72
  %76 = tail call dereferenceable_or_null(128) ptr @realloc(ptr noundef nonnull %74, i64 noundef 128) #18
  br label %Vec_PtrGrow.exit.i.i

77:                                               ; preds = %72
  %78 = tail call noalias dereferenceable_or_null(128) ptr @malloc(i64 noundef 128) #16
  br label %Vec_PtrGrow.exit.i.i

Vec_PtrGrow.exit.i.i:                             ; preds = %77, %75
  %79 = phi ptr [ %76, %75 ], [ %78, %77 ]
  store ptr %79, ptr %73, align 8, !tbaa !24
  store i32 16, ptr %1, align 8, !tbaa !23
  br label %Vec_PtrPush.exit.i

80:                                               ; preds = %70
  %81 = shl nuw nsw i32 %59, 1
  %82 = getelementptr inbounds nuw i8, ptr %1, i64 8
  %83 = load ptr, ptr %82, align 8, !tbaa !24
  %.not9.i10.i.i = icmp eq ptr %83, null
  %84 = zext nneg i32 %81 to i64
  %85 = shl nuw nsw i64 %84, 3
  br i1 %.not9.i10.i.i, label %88, label %86

86:                                               ; preds = %80
  %87 = tail call ptr @realloc(ptr noundef nonnull %83, i64 noundef %85) #18
  br label %90

88:                                               ; preds = %80
  %89 = tail call noalias ptr @malloc(i64 noundef %85) #16
  br label %90

90:                                               ; preds = %88, %86
  %91 = phi ptr [ %87, %86 ], [ %89, %88 ]
  store ptr %91, ptr %82, align 8, !tbaa !24
  store i32 %81, ptr %1, align 8, !tbaa !23
  br label %Vec_PtrPush.exit.i

Vec_PtrPush.exit.i:                               ; preds = %90, %Vec_PtrGrow.exit.i.i, %.Vec_PtrGrow.exit11_crit_edge.i.i
  %92 = phi ptr [ %.pre.i.i, %.Vec_PtrGrow.exit11_crit_edge.i.i ], [ %91, %90 ], [ %79, %Vec_PtrGrow.exit.i.i ]
  %93 = load i32, ptr %58, align 4, !tbaa !21
  %94 = add nsw i32 %93, 1
  store i32 %94, ptr %58, align 4, !tbaa !21
  %95 = sext i32 %93 to i64
  %96 = getelementptr inbounds ptr, ptr %92, i64 %95
  store ptr %.tr.lcssa, ptr %96, align 8, !tbaa !44
  br label %Vec_PtrPushUnique.exit

Vec_PtrPushUnique.exit:                           ; preds = %64, %Vec_PtrPush.exit.i
  ret void
}